target datalayout = "e-m:e-p270:32:32-p271:32:32-p272:64:64-i64:64-i128:128-f80:128-n8:16:32:64-S128"
target triple = "x86_64-pc-linux-gnu"

%struct.Abc_Ntk_t_ = type { i32, i32, ptr, ptr, ptr, ptr, ptr, ptr, ptr, ptr, ptr, ptr, ptr, [11 x i32], i32, i32, i32, i32, ptr, i32, ptr, ptr, i32, i32, i32, double, i32, %struct.Vec_Int_t_, ptr, ptr, ptr, ptr, ptr, float, i32, ptr, ptr, ptr, ptr, ptr, ptr, ptr, ptr, ptr, ptr, ptr, ptr, ptr, ptr, ptr, ptr, ptr, ptr, ptr, ptr, ptr, ptr }
%struct.Vec_Int_t_ = type { i32, i32, ptr }
%struct.Vec_Ptr_t_ = type { i32, i32, ptr }
%struct.Abc_Obj_t_ = type { ptr, ptr, i32, i32, %struct.Vec_Int_t_, %struct.Vec_Int_t_, %union.anon.0, %union.anon.1 }
%union.anon.0 = type { ptr }
%union.anon.1 = type { ptr }
%struct.Vec_Att_t_ = type { i32, ptr, ptr, ptr, ptr, ptr }

@stdout = external global ptr, align 8
@.str = private unnamed_addr constant [51 x i8] c"BDD nodes in the partitions before reordering %d.\0A\00", align 1
@.str.1 = private unnamed_addr constant [50 x i8] c"BDD nodes in the partitions after reordering %d.\0A\00", align 1

; Function Attrs: inlinehint nounwind uwtable
define internal void @Vec_AttGrow(ptr noundef %0, i32 noundef %1) #4 {
  %3 = alloca ptr, align 8
  %4 = alloca i32, align 4
  store ptr %0, ptr %3, align 8, !tbaa !76
  store i32 %1, ptr %4, align 4, !tbaa !10
  %5 = load ptr, ptr %3, align 8, !tbaa !76
  %6 = getelementptr inbounds nuw %struct.Vec_Att_t_, ptr %5, i32 0, i32 0
  %7 = load i32, ptr %6, align 8, !tbaa !78
  %8 = load i32, ptr %4, align 4, !tbaa !10
  %9 = icmp sge i32 %7, %8
  br i1 %9, label %10, label %11

10:                                               ; preds = %2
  br label %51

11:                                               ; preds = %2
  %12 = load ptr, ptr %3, align 8, !tbaa !76
  %13 = getelementptr inbounds nuw %struct.Vec_Att_t_, ptr %12, i32 0, i32 1
  %14 = load ptr, ptr %13, align 8, !tbaa !80
  %15 = icmp ne ptr %14, null
  br i1 %15, label %16, label %24

16:                                               ; preds = %11
  %17 = load ptr, ptr %3, align 8, !tbaa !76
  %18 = getelementptr inbounds nuw %struct.Vec_Att_t_, ptr %17, i32 0, i32 1
  %19 = load ptr, ptr %18, align 8, !tbaa !80
  %20 = load i32, ptr %4, align 4, !tbaa !10
  %21 = sext i32 %20 to i64
  %22 = mul i64 8, %21
  %23 = call ptr @realloc(ptr noundef %19, i64 noundef %22) #13
  br label %29

24:                                               ; preds = %11
  %25 = load i32, ptr %4, align 4, !tbaa !10
  %26 = sext i32 %25 to i64
  %27 = mul i64 8, %26
  %28 = call noalias ptr @malloc(i64 noundef %27) #11
  br label %29

29:                                               ; preds = %24, %16
  %30 = phi ptr [ %23, %16 ], [ %28, %24 ]
  %31 = load ptr, ptr %3, align 8, !tbaa !76
  %32 = getelementptr inbounds nuw %struct.Vec_Att_t_, ptr %31, i32 0, i32 1
  store ptr %30, ptr %32, align 8, !tbaa !80
  %33 = load ptr, ptr %3, align 8, !tbaa !76
  %34 = getelementptr inbounds nuw %struct.Vec_Att_t_, ptr %33, i32 0, i32 1
  %35 = load ptr, ptr %34, align 8, !tbaa !80
  %36 = load ptr, ptr %3, align 8, !tbaa !76
  %37 = getelementptr inbounds nuw %struct.Vec_Att_t_, ptr %36, i32 0, i32 0
  %38 = load i32, ptr %37, align 8, !tbaa !78
  %39 = sext i32 %38 to i64
  %40 = getelementptr inbounds ptr, ptr %35, i64 %39
  %41 = load i32, ptr %4, align 4, !tbaa !10
  %42 = load ptr, ptr %3, align 8, !tbaa !76
  %43 = getelementptr inbounds nuw %struct.Vec_Att_t_, ptr %42, i32 0, i32 0
  %44 = load i32, ptr %43, align 8, !tbaa !78
  %45 = sub nsw i32 %41, %44
  %46 = sext i32 %45 to i64
  %47 = mul i64 8, %46
  call void @llvm.memset.p0.i64(ptr align 8 %40, i8 0, i64 %47, i1 false)
  %48 = load i32, ptr %4, align 4, !tbaa !10
  %49 = load ptr, ptr %3, align 8, !tbaa !76
  %50 = getelementptr inbounds nuw %struct.Vec_Att_t_, ptr %49, i32 0, i32 0
  store i32 %48, ptr %50, align 8, !tbaa !78
  br label %51

51:                                               ; preds = %29, %10
  ret void
}

; Function Attrs: inlinehint nounwind uwtable
define internal ptr @Vec_AttEntry(ptr noundef %0, i32 noundef %1) #4 {
  %3 = alloca ptr, align 8
  %4 = alloca i32, align 4
  store ptr %0, ptr %3, align 8, !tbaa !76
  store i32 %1, ptr %4, align 4, !tbaa !10
  %5 = load i32, ptr %4, align 4, !tbaa !10
  %6 = load ptr, ptr %3, align 8, !tbaa !76
  %7 = getelementptr inbounds nuw %struct.Vec_Att_t_, ptr %6, i32 0, i32 0
  %8 = load i32, ptr %7, align 8, !tbaa !78
  %9 = icmp sge i32 %5, %8
  br i1 %9, label %10, label %28

10:                                               ; preds = %2
  %11 = load ptr, ptr %3, align 8, !tbaa !76
  %12 = load ptr, ptr %3, align 8, !tbaa !76
  %13 = getelementptr inbounds nuw %struct.Vec_Att_t_, ptr %12, i32 0, i32 0
  %14 = load i32, ptr %13, align 8, !tbaa !78
  %15 = mul nsw i32 2, %14
  %16 = load i32, ptr %4, align 4, !tbaa !10
  %17 = icmp sgt i32 %15, %16
  br i1 %17, label %18, label %23

18:                                               ; preds = %10
  %19 = load ptr, ptr %3, align 8, !tbaa !76
  %20 = getelementptr inbounds nuw %struct.Vec_Att_t_, ptr %19, i32 0, i32 0
  %21 = load i32, ptr %20, align 8, !tbaa !78
  %22 = mul nsw i32 2, %21
  br label %26

23:                                               ; preds = %10
  %24 = load i32, ptr %4, align 4, !tbaa !10
  %25 = add nsw i32 %24, 10
  br label %26

26:                                               ; preds = %23, %18
  %27 = phi i32 [ %22, %18 ], [ %25, %23 ]
  call void @Vec_AttGrow(ptr noundef %11, i32 noundef %27)
  br label %28

28:                                               ; preds = %26, %2
  %29 = load ptr, ptr %3, align 8, !tbaa !76
  %30 = getelementptr inbounds nuw %struct.Vec_Att_t_, ptr %29, i32 0, i32 1
  %31 = load ptr, ptr %30, align 8, !tbaa !80
  %32 = load i32, ptr %4, align 4, !tbaa !10
  %33 = sext i32 %32 to i64
  %34 = getelementptr inbounds ptr, ptr %31, i64 %33
  %35 = load ptr, ptr %34, align 8, !tbaa !64
  %36 = icmp eq ptr %35, null
  br i1 %36, label %37, label %56

37:                                               ; preds = %28
  %38 = load ptr, ptr %3, align 8, !tbaa !76
  %39 = getelementptr inbounds nuw %struct.Vec_Att_t_, ptr %38, i32 0, i32 4
  %40 = load ptr, ptr %39, align 8, !tbaa !81
  %41 = icmp ne ptr %40, null
  br i1 %41, label %42, label %56

42:                                               ; preds = %37
  %43 = load ptr, ptr %3, align 8, !tbaa !76
  %44 = getelementptr inbounds nuw %struct.Vec_Att_t_, ptr %43, i32 0, i32 4
  %45 = load ptr, ptr %44, align 8, !tbaa !81
  %46 = load ptr, ptr %3, align 8, !tbaa !76
  %47 = getelementptr inbounds nuw %struct.Vec_Att_t_, ptr %46, i32 0, i32 2
  %48 = load ptr, ptr %47, align 8, !tbaa !82
  %49 = call ptr %45(ptr noundef %48)
  %50 = load ptr, ptr %3, align 8, !tbaa !76
  %51 = getelementptr inbounds nuw %struct.Vec_Att_t_, ptr %50, i32 0, i32 1
  %52 = load ptr, ptr %51, align 8, !tbaa !80
  %53 = load i32, ptr %4, align 4, !tbaa !10
  %54 = sext i32 %53 to i64
  %55 = getelementptr inbounds ptr, ptr %52, i64 %54
  store ptr %49, ptr %55, align 8, !tbaa !64
  br label %56

56:                                               ; preds = %42, %37, %28
  %57 = load ptr, ptr %3, align 8, !tbaa !76
  %58 = getelementptr inbounds nuw %struct.Vec_Att_t_, ptr %57, i32 0, i32 1
  %59 = load ptr, ptr %58, align 8, !tbaa !80
  %60 = load i32, ptr %4, align 4, !tbaa !10
  %61 = sext i32 %60 to i64
  %62 = getelementptr inbounds ptr, ptr %59, i64 %61
  %63 = load ptr, ptr %62, align 8, !tbaa !64
  ret ptr %63
}

; Function Attrs: inlinehint nounwind uwtable
define internal ptr @Abc_NtkGlobalBdd(ptr noundef %0) #4 {
  %2 = alloca ptr, align 8
  store ptr %0, ptr %2, align 8, !tbaa !8
  %3 = load ptr, ptr %2, align 8, !tbaa !8
  %4 = getelementptr inbounds nuw %struct.Abc_Ntk_t_, ptr %3, i32 0, i32 53
  %5 = load ptr, ptr %4, align 8, !tbaa !83
  %6 = call ptr @Vec_PtrEntry(ptr noundef %5, i32 noundef 7)
  ret ptr %6
}

; Function Attrs: inlinehint nounwind uwtable
define internal ptr @Vec_PtrEntry(ptr noundef %0, i32 noundef %1) #4 {
  %3 = alloca ptr, align 8
  %4 = alloca i32, align 4
  store ptr %0, ptr %3, align 8, !tbaa !50
  store i32 %1, ptr %4, align 4, !tbaa !10
  %5 = load ptr, ptr %3, align 8, !tbaa !50
  %6 = getelementptr inbounds nuw %struct.Vec_Ptr_t_, ptr %5, i32 0, i32 2
  %7 = load ptr, ptr %6, align 8, !tbaa !62
  %8 = load i32, ptr %4, align 4, !tbaa !10
  %9 = sext i32 %8 to i64
  %10 = getelementptr inbounds ptr, ptr %7, i64 %9
  %11 = load ptr, ptr %10, align 8, !tbaa !64
  ret ptr %11
}

; Function Attrs: inlinehint nounwind uwtable
define internal ptr @Abc_ObjGlobalBdd(ptr noundef %0) #4 {
  %2 = alloca ptr, align 8
  store ptr %0, ptr %2, align 8, !tbaa !45
  %3 = load ptr, ptr %2, align 8, !tbaa !45
  %4 = getelementptr inbounds nuw %struct.Abc_Obj_t_, ptr %3, i32 0, i32 0
  %5 = load ptr, ptr %4, align 8, !tbaa !58
  %6 = call ptr @Abc_NtkGlobalBdd(ptr noundef %5)
  %7 = load ptr, ptr %2, align 8, !tbaa !45
  %8 = getelementptr inbounds nuw %struct.Abc_Obj_t_, ptr %7, i32 0, i32 2
  %9 = load i32, ptr %8, align 8, !tbaa !60
  %10 = call ptr @Vec_AttEntry(ptr noundef %6, i32 noundef %9)
  ret ptr %10
}

; Function Attrs: inlinehint nounwind uwtable
define internal ptr @Abc_ObjFanin0(ptr noundef %0) #4 {
  %2 = alloca ptr, align 8
  store ptr %0, ptr %2, align 8, !tbaa !45
  %3 = load ptr, ptr %2, align 8, !tbaa !45
  %4 = getelementptr inbounds nuw %struct.Abc_Obj_t_, ptr %3, i32 0, i32 0
  %5 = load ptr, ptr %4, align 8, !tbaa !58
  %6 = getelementptr inbounds nuw %struct.Abc_Ntk_t_, ptr %5, i32 0, i32 5
  %7 = load ptr, ptr %6, align 8, !tbaa !61
  %8 = getelementptr inbounds nuw %struct.Vec_Ptr_t_, ptr %7, i32 0, i32 2
  %9 = load ptr, ptr %8, align 8, !tbaa !62
  %10 = load ptr, ptr %2, align 8, !tbaa !45
  %11 = getelementptr inbounds nuw %struct.Abc_Obj_t_, ptr %10, i32 0, i32 4
  %12 = getelementptr inbounds nuw %struct.Vec_Int_t_, ptr %11, i32 0, i32 2
  %13 = load ptr, ptr %12, align 8, !tbaa !63
  %14 = getelementptr inbounds i32, ptr %13, i64 0
  %15 = load i32, ptr %14, align 4, !tbaa !10
  %16 = sext i32 %15 to i64
  %17 = getelementptr inbounds ptr, ptr %9, i64 %16
  %18 = load ptr, ptr %17, align 8, !tbaa !64
  ret ptr %18
}

; Function Attrs: inlinehint nounwind uwtable
define internal i32 @Abc_ObjIsLatch(ptr noundef %0) #4 {
  %2 = alloca ptr, align 8
  store ptr %0, ptr %2, align 8, !tbaa !45
  %3 = load ptr, ptr %2, align 8, !tbaa !45
  %4 = getelementptr inbounds nuw %struct.Abc_Obj_t_, ptr %3, i32 0, i32 3
  %5 = load i32, ptr %4, align 4
  %6 = and i32 %5, 15
  %7 = icmp eq i32 %6, 8
  %8 = zext i1 %7 to i32
  ret i32 %8
}

; Function Attrs: inlinehint nounwind uwtable
define internal ptr @Abc_NtkBox(ptr noundef %0, i32 noundef %1) #4 {
  %3 = alloca ptr, align 8
  %4 = alloca i32, align 4
  store ptr %0, ptr %3, align 8, !tbaa !8
  store i32 %1, ptr %4, align 4, !tbaa !10
  %5 = load ptr, ptr %3, align 8, !tbaa !8
  %6 = getelementptr inbounds nuw %struct.Abc_Ntk_t_, ptr %5, i32 0, i32 11
  %7 = load ptr, ptr %6, align 8, !tbaa !32
  %8 = load i32, ptr %4, align 4, !tbaa !10
  %9 = call ptr @Vec_PtrEntry(ptr noundef %7, i32 noundef %8)
  ret ptr %9
}

; Function Attrs: inlinehint nounwind uwtable
define internal i32 @Vec_PtrSize(ptr noundef %0) #4 {
  %2 = alloca ptr, align 8
  store ptr %0, ptr %2, align 8, !tbaa !50
  %3 = load ptr, ptr %2, align 8, !tbaa !50
  %4 = getelementptr inbounds nuw %struct.Vec_Ptr_t_, ptr %3, i32 0, i32 1
  %5 = load i32, ptr %4, align 4, !tbaa !51
  ret i32 %5
}

; Function Attrs: inlinehint nounwind uwtable
define internal i32 @Abc_NtkLatchNum(ptr noundef %0) #4 {
  %2 = alloca ptr, align 8
  store ptr %0, ptr %2, align 8, !tbaa !8
  %3 = load ptr, ptr %2, align 8, !tbaa !8
  %4 = getelementptr inbounds nuw %struct.Abc_Ntk_t_, ptr %3, i32 0, i32 13
  %5 = getelementptr inbounds [11 x i32], ptr %4, i64 0, i64 8
  %6 = load i32, ptr %5, align 8, !tbaa !10
  ret i32 %6
}

; Function Attrs: inlinehint nounwind uwtable
define internal i32 @Abc_NtkCiNum(ptr noundef %0) #4 {
  %2 = alloca ptr, align 8
  store ptr %0, ptr %2, align 8, !tbaa !8
  %3 = load ptr, ptr %2, align 8, !tbaa !8
  %4 = getelementptr inbounds nuw %struct.Abc_Ntk_t_, ptr %3, i32 0, i32 8
  %5 = load ptr, ptr %4, align 8, !tbaa !54
  %6 = call i32 @Vec_PtrSize(ptr noundef %5)
  ret i32 %6
}

; Function Attrs: nounwind uwtable
define ptr @Abc_NtkCreatePartitions(ptr noundef %0, ptr noundef %1, i32 noundef %2, i32 noundef %3) #0 {
  %5 = alloca ptr, align 8
  %6 = alloca ptr, align 8
  %7 = alloca i32, align 4
  %8 = alloca i32, align 4
  %9 = alloca ptr, align 8
  %10 = alloca ptr, align 8
  %11 = alloca ptr, align 8
  %12 = alloca i32, align 4
  store ptr %0, ptr %5, align 8, !tbaa !3
  store ptr %1, ptr %6, align 8, !tbaa !8
  store i32 %2, ptr %7, align 4, !tbaa !10
  store i32 %3, ptr %8, align 4, !tbaa !10
  call void @llvm.lifetime.start.p0(i64 8, ptr %9) #10
  call void @llvm.lifetime.start.p0(i64 8, ptr %10) #10
  call void @llvm.lifetime.start.p0(i64 8, ptr %11) #10
  call void @llvm.lifetime.start.p0(i64 4, ptr %12) #10
  %13 = load ptr, ptr %5, align 8, !tbaa !3
  %14 = load ptr, ptr %6, align 8, !tbaa !8
  %15 = call i32 @Abc_NtkCiNum(ptr noundef %14)
  %16 = load ptr, ptr %6, align 8, !tbaa !8
  %17 = call i32 @Abc_NtkLatchNum(ptr noundef %16)
  %18 = add nsw i32 %15, %17
  %19 = sub nsw i32 %18, 1
  %20 = call ptr @Cudd_bddIthVar(ptr noundef %13, i32 noundef %19)
  %21 = load i32, ptr %7, align 4, !tbaa !10
  %22 = icmp ne i32 %21, 0
  br i1 %22, label %23, label %25

23:                                               ; preds = %4
  %24 = load ptr, ptr %5, align 8, !tbaa !3
  call void @Cudd_AutodynEnable(ptr noundef %24, i32 noundef 6)
  br label %27

25:                                               ; preds = %4
  %26 = load ptr, ptr %5, align 8, !tbaa !3
  call void @Cudd_AutodynDisable(ptr noundef %26)
  br label %27

27:                                               ; preds = %25, %23
  %28 = load ptr, ptr %6, align 8, !tbaa !8
  %29 = call i32 @Abc_NtkLatchNum(ptr noundef %28)
  %30 = sext i32 %29 to i64
  %31 = mul i64 8, %30
  %32 = call noalias ptr @malloc(i64 noundef %31) #11
  store ptr %32, ptr %9, align 8, !tbaa !29
  store i32 0, ptr %12, align 4, !tbaa !10
  br label %33

33:                                               ; preds = %74, %27
  %34 = load i32, ptr %12, align 4, !tbaa !10
  %35 = load ptr, ptr %6, align 8, !tbaa !8
  %36 = getelementptr inbounds nuw %struct.Abc_Ntk_t_, ptr %35, i32 0, i32 11
  %37 = load ptr, ptr %36, align 8, !tbaa !32
  %38 = call i32 @Vec_PtrSize(ptr noundef %37)
  %39 = icmp slt i32 %34, %38
  br i1 %39, label %40, label %44

40:                                               ; preds = %33
  %41 = load ptr, ptr %6, align 8, !tbaa !8
  %42 = load i32, ptr %12, align 4, !tbaa !10
  %43 = call ptr @Abc_NtkBox(ptr noundef %41, i32 noundef %42)
  store ptr %43, ptr %11, align 8, !tbaa !45
  br label %44

44:                                               ; preds = %40, %33
  %45 = phi i1 [ false, %33 ], [ true, %40 ]
  br i1 %45, label %46, label %77

46:                                               ; preds = %44
  %47 = load ptr, ptr %11, align 8, !tbaa !45
  %48 = call i32 @Abc_ObjIsLatch(ptr noundef %47)
  %49 = icmp ne i32 %48, 0
  br i1 %49, label %51, label %50

50:                                               ; preds = %46
  br label %73

51:                                               ; preds = %46
  %52 = load ptr, ptr %5, align 8, !tbaa !3
  %53 = load ptr, ptr %6, align 8, !tbaa !8
  %54 = call i32 @Abc_NtkCiNum(ptr noundef %53)
  %55 = load i32, ptr %12, align 4, !tbaa !10
  %56 = add nsw i32 %54, %55
  %57 = call ptr @Cudd_bddIthVar(ptr noundef %52, i32 noundef %56)
  store ptr %57, ptr %10, align 8, !tbaa !31
  %58 = load ptr, ptr %5, align 8, !tbaa !3
  %59 = load ptr, ptr %10, align 8, !tbaa !31
  %60 = load ptr, ptr %11, align 8, !tbaa !45
  %61 = call ptr @Abc_ObjFanin0(ptr noundef %60)
  %62 = call ptr @Abc_ObjGlobalBdd(ptr noundef %61)
  %63 = call ptr @Cudd_bddXnor(ptr noundef %58, ptr noundef %59, ptr noundef %62)
  %64 = load ptr, ptr %9, align 8, !tbaa !29
  %65 = load i32, ptr %12, align 4, !tbaa !10
  %66 = sext i32 %65 to i64
  %67 = getelementptr inbounds ptr, ptr %64, i64 %66
  store ptr %63, ptr %67, align 8, !tbaa !31
  %68 = load ptr, ptr %9, align 8, !tbaa !29
  %69 = load i32, ptr %12, align 4, !tbaa !10
  %70 = sext i32 %69 to i64
  %71 = getelementptr inbounds ptr, ptr %68, i64 %70
  %72 = load ptr, ptr %71, align 8, !tbaa !31
  call void @Cudd_Ref(ptr noundef %72)
  br label %73

73:                                               ; preds = %51, %50
  br label %74

74:                                               ; preds = %73
  %75 = load i32, ptr %12, align 4, !tbaa !10
  %76 = add nsw i32 %75, 1
  store i32 %76, ptr %12, align 4, !tbaa !10
  br label %33, !llvm.loop !56

77:                                               ; preds = %44
  %78 = load ptr, ptr %6, align 8, !tbaa !8
  %79 = call ptr @Abc_NtkFreeGlobalBdds(ptr noundef %78, i32 noundef 0)
  %80 = load i32, ptr %7, align 4, !tbaa !10
  %81 = icmp ne i32 %80, 0
  br i1 %81, label %82, label %106

82:                                               ; preds = %77
  %83 = load i32, ptr %8, align 4, !tbaa !10
  %84 = icmp ne i32 %83, 0
  br i1 %84, label %85, label %92

85:                                               ; preds = %82
  %86 = load ptr, ptr @stdout, align 8, !tbaa !57
  %87 = load ptr, ptr %9, align 8, !tbaa !29
  %88 = load ptr, ptr %6, align 8, !tbaa !8
  %89 = call i32 @Abc_NtkLatchNum(ptr noundef %88)
  %90 = call i32 @Cudd_SharingSize(ptr noundef %87, i32 noundef %89)
  %91 = call i32 (ptr, ptr, ...) @fprintf(ptr noundef %86, ptr noundef @.str, i32 noundef %90) #10
  br label %92

92:                                               ; preds = %85, %82
  %93 = load ptr, ptr %5, align 8, !tbaa !3
  %94 = call i32 @Cudd_ReduceHeap(ptr noundef %93, i32 noundef 6, i32 noundef 100)
  %95 = load ptr, ptr %5, align 8, !tbaa !3
  call void @Cudd_AutodynDisable(ptr noundef %95)
  %96 = load i32, ptr %8, align 4, !tbaa !10
  %97 = icmp ne i32 %96, 0
  br i1 %97, label %98, label %105

98:                                               ; preds = %92
  %99 = load ptr, ptr @stdout, align 8, !tbaa !57
  %100 = load ptr, ptr %9, align 8, !tbaa !29
  %101 = load ptr, ptr %6, align 8, !tbaa !8
  %102 = call i32 @Abc_NtkLatchNum(ptr noundef %101)
  %103 = call i32 @Cudd_SharingSize(ptr noundef %100, i32 noundef %102)
  %104 = call i32 (ptr, ptr, ...) @fprintf(ptr noundef %99, ptr noundef @.str.1, i32 noundef %103) #10
  br label %105

105:                                              ; preds = %98, %92
  br label %106

106:                                              ; preds = %105, %77
  %107 = load ptr, ptr %9, align 8, !tbaa !29
  call void @llvm.lifetime.end.p0(i64 4, ptr %12) #10
  call void @llvm.lifetime.end.p0(i64 8, ptr %11) #10
  call void @llvm.lifetime.end.p0(i64 8, ptr %10) #10
  call void @llvm.lifetime.end.p0(i64 8, ptr %9) #10
  ret ptr %107
}