; Function Attrs: nounwind uwtable
define noundef ptr @Abc_NtkCreatePartitions(ptr noundef %0, ptr noundef %1, i32 noundef %2, i32 noundef %3) local_unnamed_addr #0 {
  %5 = getelementptr i8, ptr %1, i64 56
  %.val40 = load ptr, ptr %5, align 8, !tbaa !46
  %6 = getelementptr i8, ptr %.val40, i64 4
  %.val40.val = load i32, ptr %6, align 4, !tbaa !39
  %7 = getelementptr i8, ptr %1, i64 128
  %.val44 = load i32, ptr %7, align 8, !tbaa !50
  %8 = add i32 %.val40.val, -1
  %9 = add i32 %8, %.val44
  %10 = tail call ptr @Cudd_bddIthVar(ptr noundef %0, i32 noundef %9) #15
  %.not = icmp eq i32 %2, 0
  br i1 %.not, label %12, label %11

11:                                               ; preds = %4
  tail call void @Cudd_AutodynEnable(ptr noundef %0, i32 noundef 6) #15
  br label %13

12:                                               ; preds = %4
  tail call void @Cudd_AutodynDisable(ptr noundef %0) #15
  br label %13

13:                                               ; preds = %12, %11
  %.val43 = load i32, ptr %7, align 8, !tbaa !50
  %14 = sext i32 %.val43 to i64
  %15 = shl nsw i64 %14, 3
  %16 = tail call noalias ptr @malloc(i64 noundef %15) #14
  %17 = getelementptr inbounds nuw i8, ptr %1, i64 80
  %18 = load ptr, ptr %17, align 8, !tbaa !25
  %19 = getelementptr i8, ptr %18, i64 4
  %.val50 = load i32, ptr %19, align 4, !tbaa !39
  %20 = icmp sgt i32 %.val50, 0
  br i1 %20, label %.lr.ph, label %.critedge

.lr.ph:                                           ; preds = %13, %83
  %21 = phi ptr [ %84, %83 ], [ %18, %13 ]
  %indvars.iv = phi i64 [ %indvars.iv.next, %83 ], [ 0, %13 ]
  %22 = getelementptr i8, ptr %21, i64 8
  %.val37.val = load ptr, ptr %22, align 8, !tbaa !41
  %23 = getelementptr inbounds nuw ptr, ptr %.val37.val, i64 %indvars.iv
  %24 = load ptr, ptr %23, align 8, !tbaa !42
  %25 = getelementptr i8, ptr %24, i64 20
  %.val38 = load i32, ptr %25, align 4
  %26 = and i32 %.val38, 15
  %.not49 = icmp eq i32 %26, 8
  br i1 %.not49, label %27, label %83

27:                                               ; preds = %.lr.ph
  %.val39 = load ptr, ptr %5, align 8, !tbaa !46
  %28 = getelementptr i8, ptr %.val39, i64 4
  %.val39.val = load i32, ptr %28, align 4, !tbaa !39
  %29 = trunc nuw nsw i64 %indvars.iv to i32
  %30 = add nsw i32 %.val39.val, %29
  %31 = tail call ptr @Cudd_bddIthVar(ptr noundef %0, i32 noundef %30) #15
  %.val45 = load ptr, ptr %24, align 8, !tbaa !51
  %32 = getelementptr i8, ptr %24, i64 32
  %.val46 = load ptr, ptr %32, align 8, !tbaa !54
  %33 = getelementptr i8, ptr %.val45, i64 32
  %.val45.val = load ptr, ptr %33, align 8, !tbaa !55
  %.val46.val = load i32, ptr %.val46, align 4, !tbaa !50
  %34 = getelementptr i8, ptr %.val45.val, i64 8
  %.val45.val.val = load ptr, ptr %34, align 8, !tbaa !41
  %35 = sext i32 %.val46.val to i64
  %36 = getelementptr inbounds ptr, ptr %.val45.val.val, i64 %35
  %37 = load ptr, ptr %36, align 8, !tbaa !42
  %.val47 = load ptr, ptr %37, align 8, !tbaa !51
  %38 = getelementptr i8, ptr %37, i64 16
  %.val48 = load i32, ptr %38, align 8, !tbaa !56
  %39 = getelementptr i8, ptr %.val47, i64 432
  %.val47.val = load ptr, ptr %39, align 8, !tbaa !57
  %40 = getelementptr i8, ptr %.val47.val, i64 8
  %.val47.val.val = load ptr, ptr %40, align 8, !tbaa !41
  %41 = getelementptr i8, ptr %.val47.val.val, i64 56
  %.val47.val.val.val = load ptr, ptr %41, align 8, !tbaa !42
  %42 = load i32, ptr %.val47.val.val.val, align 8, !tbaa !58
  %.not.i.i = icmp slt i32 %.val48, %42
  br i1 %.not.i.i, label %Vec_AttGrow.exit.i.i, label %43

43:                                               ; preds = %27
  %44 = shl nsw i32 %42, 1
  %45 = icmp sgt i32 %44, %.val48
  %46 = add nsw i32 %.val48, 10
  %47 = select i1 %45, i32 %44, i32 %46
  %.not.i.i.i = icmp slt i32 %42, %47
  br i1 %.not.i.i.i, label %48, label %Vec_AttGrow.exit.i.i

48:                                               ; preds = %43
  %49 = getelementptr inbounds nuw i8, ptr %.val47.val.val.val, i64 8
  %50 = load ptr, ptr %49, align 8, !tbaa !60
  %.not13.i.i.i = icmp eq ptr %50, null
  %51 = sext i32 %47 to i64
  %52 = shl nsw i64 %51, 3
  br i1 %.not13.i.i.i, label %55, label %53

53:                                               ; preds = %48
  %54 = tail call ptr @realloc(ptr noundef nonnull %50, i64 noundef %52) #16
  %.pre.i.i.i = load i32, ptr %.val47.val.val.val, align 8, !tbaa !58
  br label %57

55:                                               ; preds = %48
  %56 = tail call noalias ptr @malloc(i64 noundef %52) #14
  br label %57

57:                                               ; preds = %55, %53
  %58 = phi i32 [ %.pre.i.i.i, %53 ], [ %42, %55 ]
  %59 = phi ptr [ %54, %53 ], [ %56, %55 ]
  store ptr %59, ptr %49, align 8, !tbaa !60
  %60 = sext i32 %58 to i64
  %61 = getelementptr inbounds ptr, ptr %59, i64 %60
  %62 = sub nsw i32 %47, %58
  %63 = sext i32 %62 to i64
  %64 = shl nsw i64 %63, 3
  tail call void @llvm.memset.p0.i64(ptr align 8 %61, i8 0, i64 %64, i1 false)
  store i32 %47, ptr %.val47.val.val.val, align 8, !tbaa !58
  br label %Vec_AttGrow.exit.i.i

Vec_AttGrow.exit.i.i:                             ; preds = %57, %43, %27
  %65 = getelementptr inbounds nuw i8, ptr %.val47.val.val.val, i64 8
  %66 = load ptr, ptr %65, align 8, !tbaa !60
  %67 = sext i32 %.val48 to i64
  %68 = getelementptr inbounds ptr, ptr %66, i64 %67
  %69 = load ptr, ptr %68, align 8, !tbaa !42
  %70 = icmp eq ptr %69, null
  br i1 %70, label %71, label %Abc_ObjGlobalBdd.exit

71:                                               ; preds = %Vec_AttGrow.exit.i.i
  %72 = getelementptr inbounds nuw i8, ptr %.val47.val.val.val, i64 32
  %73 = load ptr, ptr %72, align 8, !tbaa !61
  %.not18.i.i = icmp eq ptr %73, null
  br i1 %.not18.i.i, label %Abc_ObjGlobalBdd.exit, label %74

74:                                               ; preds = %71
  %75 = getelementptr inbounds nuw i8, ptr %.val47.val.val.val, i64 16
  %76 = load ptr, ptr %75, align 8, !tbaa !62
  %77 = tail call ptr %73(ptr noundef %76) #15
  %78 = load ptr, ptr %65, align 8, !tbaa !60
  %79 = getelementptr inbounds ptr, ptr %78, i64 %67
  store ptr %77, ptr %79, align 8, !tbaa !42
  %.pre.i.i = load ptr, ptr %65, align 8, !tbaa !60
  %.phi.trans.insert.i.i = getelementptr inbounds ptr, ptr %.pre.i.i, i64 %67
  %.pre19.i.i = load ptr, ptr %.phi.trans.insert.i.i, align 8, !tbaa !42
  br label %Abc_ObjGlobalBdd.exit

Abc_ObjGlobalBdd.exit:                            ; preds = %Vec_AttGrow.exit.i.i, %71, %74
  %80 = phi ptr [ %.pre19.i.i, %74 ], [ null, %71 ], [ %69, %Vec_AttGrow.exit.i.i ]
  %81 = tail call ptr @Cudd_bddXnor(ptr noundef %0, ptr noundef %31, ptr noundef %80) #15
  %82 = getelementptr inbounds nuw ptr, ptr %16, i64 %indvars.iv
  store ptr %81, ptr %82, align 8, !tbaa !45
  tail call void @Cudd_Ref(ptr noundef %81) #15
  %.pre = load ptr, ptr %17, align 8, !tbaa !25
  br label %83

83:                                               ; preds = %Abc_ObjGlobalBdd.exit, %.lr.ph
  %84 = phi ptr [ %.pre, %Abc_ObjGlobalBdd.exit ], [ %21, %.lr.ph ]
  %indvars.iv.next = add nuw nsw i64 %indvars.iv, 1
  %85 = getelementptr i8, ptr %84, i64 4
  %.val = load i32, ptr %85, align 4, !tbaa !39
  %86 = sext i32 %.val to i64
  %87 = icmp slt i64 %indvars.iv.next, %86
  br i1 %87, label %.lr.ph, label %.critedge, !llvm.loop !63

.critedge:                                        ; preds = %83, %13
  %88 = tail call ptr @Abc_NtkFreeGlobalBdds(ptr noundef nonnull %1, i32 noundef 0) #15
  br i1 %.not, label %99, label %89

89:                                               ; preds = %.critedge
  %.not33 = icmp eq i32 %3, 0
  br i1 %.not33, label %.critedge36, label %90

90:                                               ; preds = %89
  %91 = load ptr, ptr @stdout, align 8, !tbaa !64
  %.val42 = load i32, ptr %7, align 8, !tbaa !50
  %92 = tail call i32 @Cudd_SharingSize(ptr noundef %16, i32 noundef %.val42) #15
  %93 = tail call i32 (ptr, ptr, ...) @fprintf(ptr noundef %91, ptr noundef nonnull @.str, i32 noundef %92) #15
  %94 = tail call i32 @Cudd_ReduceHeap(ptr noundef %0, i32 noundef 6, i32 noundef 100) #15
  tail call void @Cudd_AutodynDisable(ptr noundef %0) #15
  %95 = load ptr, ptr @stdout, align 8, !tbaa !64
  %.val41 = load i32, ptr %7, align 8, !tbaa !50
  %96 = tail call i32 @Cudd_SharingSize(ptr noundef %16, i32 noundef %.val41) #15
  %97 = tail call i32 (ptr, ptr, ...) @fprintf(ptr noundef %95, ptr noundef nonnull @.str.1, i32 noundef %96) #15
  br label %99

.critedge36:                                      ; preds = %89
  %98 = tail call i32 @Cudd_ReduceHeap(ptr noundef %0, i32 noundef 6, i32 noundef 100) #15
  tail call void @Cudd_AutodynDisable(ptr noundef %0) #15
  br label %99

99:                                               ; preds = %.critedge36, %90, %.critedge
  ret ptr %16
}